(dp1
S'codigo'
p2
(dp3
S'type'
p4
S'string'
p5
sS'sortable'
p6
I2
sS'sql'
p7
S'VARCHAR(512)'
p8
ssS'id'
p9
(dp10
g4
g9
sg6
I1
sg7
S'SERIAL PRIMARY KEY'
p11
ssS'nome'
p12
(dp13
g4
g5
sg6
I3
sg7
S'VARCHAR(512)'
p14
ss.